target datalayout = "e-m:e-p270:32:32-p271:32:32-p272:64:64-i64:64-i128:128-f80:128-n8:16:32:64-S128"
target triple = "x86_64-pc-linux-gnu"

%struct.AVTXContext = type { i32, i32, ptr, ptr, ptr, ptr, [4 x ptr], i32, [4 x ptr], ptr, i32, i64, i32, float, double, ptr }

; Function Attrs: nounwind uwtable
define internal void @ff_tx_dctIII_float_c(ptr noundef %0, ptr noundef %1, ptr noundef %2, i64 noundef %3) #4 {
  %5 = alloca ptr, align 8
  %6 = alloca ptr, align 8
  %7 = alloca ptr, align 8
  %8 = alloca i64, align 8
  %9 = alloca ptr, align 8
  %10 = alloca ptr, align 8
  %11 = alloca i32, align 4
  %12 = alloca i32, align 4
  %13 = alloca ptr, align 8
  %14 = alloca float, align 4
  %15 = alloca float, align 4
  %16 = alloca i32, align 4
  %17 = alloca float, align 4
  %18 = alloca float, align 4
  %19 = alloca i32, align 4
  %20 = alloca float, align 4
  %21 = alloca float, align 4
  %22 = alloca float, align 4
  store ptr %0, ptr %5, align 8, !tbaa !17
  store ptr %1, ptr %6, align 8, !tbaa !8
  store ptr %2, ptr %7, align 8, !tbaa !8
  store i64 %3, ptr %8, align 8, !tbaa !30
  call void @llvm.lifetime.start.p0(i64 8, ptr %9) #10
  %23 = load ptr, ptr %6, align 8, !tbaa !8
  store ptr %23, ptr %9, align 8, !tbaa !39
  call void @llvm.lifetime.start.p0(i64 8, ptr %10) #10
  %24 = load ptr, ptr %7, align 8, !tbaa !8
  store ptr %24, ptr %10, align 8, !tbaa !39
  call void @llvm.lifetime.start.p0(i64 4, ptr %11) #10
  %25 = load ptr, ptr %5, align 8, !tbaa !17
  %26 = getelementptr inbounds nuw %struct.AVTXContext, ptr %25, i32 0, i32 0
  %27 = load i32, ptr %26, align 8, !tbaa !21
  store i32 %27, ptr %11, align 4, !tbaa !4
  call void @llvm.lifetime.start.p0(i64 4, ptr %12) #10
  %28 = load i32, ptr %11, align 4, !tbaa !4
  %29 = ashr i32 %28, 1
  store i32 %29, ptr %12, align 4, !tbaa !4
  call void @llvm.lifetime.start.p0(i64 8, ptr %13) #10
  %30 = load ptr, ptr %5, align 8, !tbaa !17
  %31 = getelementptr inbounds nuw %struct.AVTXContext, ptr %30, i32 0, i32 3
  %32 = load ptr, ptr %31, align 8, !tbaa !31
  store ptr %32, ptr %13, align 8, !tbaa !39
  call void @llvm.lifetime.start.p0(i64 4, ptr %14) #10
  call void @llvm.lifetime.start.p0(i64 4, ptr %15) #10
  %33 = load ptr, ptr %10, align 8, !tbaa !39
  %34 = load i32, ptr %11, align 4, !tbaa !4
  %35 = sub nsw i32 %34, 1
  %36 = sext i32 %35 to i64
  %37 = getelementptr inbounds float, ptr %33, i64 %36
  %38 = load float, ptr %37, align 4, !tbaa !36
  %39 = fmul nsz float 2.000000e+00, %38
  store float %39, ptr %15, align 4, !tbaa !36
  %40 = load float, ptr %15, align 4, !tbaa !36
  %41 = load ptr, ptr %10, align 8, !tbaa !39
  %42 = load i32, ptr %11, align 4, !tbaa !4
  %43 = sext i32 %42 to i64
  %44 = getelementptr inbounds float, ptr %41, i64 %43
  store float %40, ptr %44, align 4, !tbaa !36
  call void @llvm.lifetime.start.p0(i64 4, ptr %16) #10
  %45 = load i32, ptr %11, align 4, !tbaa !4
  %46 = sub nsw i32 %45, 2
  store i32 %46, ptr %16, align 4, !tbaa !4
  br label %47

47:                                               ; preds = %116, %4
  %48 = load i32, ptr %16, align 4, !tbaa !4
  %49 = icmp sge i32 %48, 2
  br i1 %49, label %51, label %50

50:                                               ; preds = %47
  call void @llvm.lifetime.end.p0(i64 4, ptr %16) #10
  br label %119

51:                                               ; preds = %47
  call void @llvm.lifetime.start.p0(i64 4, ptr %17) #10
  %52 = load ptr, ptr %10, align 8, !tbaa !39
  %53 = load i32, ptr %16, align 4, !tbaa !4
  %54 = sub nsw i32 %53, 0
  %55 = sext i32 %54 to i64
  %56 = getelementptr inbounds float, ptr %52, i64 %55
  %57 = load float, ptr %56, align 4, !tbaa !36
  store float %57, ptr %17, align 4, !tbaa !36
  call void @llvm.lifetime.start.p0(i64 4, ptr %18) #10
  %58 = load ptr, ptr %10, align 8, !tbaa !39
  %59 = load i32, ptr %16, align 4, !tbaa !4
  %60 = sub nsw i32 %59, 1
  %61 = sext i32 %60 to i64
  %62 = getelementptr inbounds float, ptr %58, i64 %61
  %63 = load float, ptr %62, align 4, !tbaa !36
  %64 = load ptr, ptr %10, align 8, !tbaa !39
  %65 = load i32, ptr %16, align 4, !tbaa !4
  %66 = add nsw i32 %65, 1
  %67 = sext i32 %66 to i64
  %68 = getelementptr inbounds float, ptr %64, i64 %67
  %69 = load float, ptr %68, align 4, !tbaa !36
  %70 = fsub nsz float %63, %69
  store float %70, ptr %18, align 4, !tbaa !36
  br label %71

71:                                               ; preds = %51
  %72 = load ptr, ptr %13, align 8, !tbaa !39
  %73 = load i32, ptr %11, align 4, !tbaa !4
  %74 = load i32, ptr %16, align 4, !tbaa !4
  %75 = sub nsw i32 %73, %74
  %76 = sext i32 %75 to i64
  %77 = getelementptr inbounds float, ptr %72, i64 %76
  %78 = load float, ptr %77, align 4, !tbaa !36
  %79 = load float, ptr %17, align 4, !tbaa !36
  %80 = load ptr, ptr %13, align 8, !tbaa !39
  %81 = load i32, ptr %16, align 4, !tbaa !4
  %82 = sext i32 %81 to i64
  %83 = getelementptr inbounds float, ptr %80, i64 %82
  %84 = load float, ptr %83, align 4, !tbaa !36
  %85 = load float, ptr %18, align 4, !tbaa !36
  %86 = fmul nsz float %84, %85
  %87 = fneg nsz float %86
  %88 = call nsz float @llvm.fmuladd.f32(float %78, float %79, float %87)
  %89 = load ptr, ptr %10, align 8, !tbaa !39
  %90 = load i32, ptr %16, align 4, !tbaa !4
  %91 = add nsw i32 %90, 1
  %92 = sext i32 %91 to i64
  %93 = getelementptr inbounds float, ptr %89, i64 %92
  store float %88, ptr %93, align 4, !tbaa !36
  %94 = load ptr, ptr %13, align 8, !tbaa !39
  %95 = load i32, ptr %11, align 4, !tbaa !4
  %96 = load i32, ptr %16, align 4, !tbaa !4
  %97 = sub nsw i32 %95, %96
  %98 = sext i32 %97 to i64
  %99 = getelementptr inbounds float, ptr %94, i64 %98
  %100 = load float, ptr %99, align 4, !tbaa !36
  %101 = load float, ptr %18, align 4, !tbaa !36
  %102 = load ptr, ptr %13, align 8, !tbaa !39
  %103 = load i32, ptr %16, align 4, !tbaa !4
  %104 = sext i32 %103 to i64
  %105 = getelementptr inbounds float, ptr %102, i64 %104
  %106 = load float, ptr %105, align 4, !tbaa !36
  %107 = load float, ptr %17, align 4, !tbaa !36
  %108 = fmul nsz float %106, %107
  %109 = call nsz float @llvm.fmuladd.f32(float %100, float %101, float %108)
  %110 = load ptr, ptr %10, align 8, !tbaa !39
  %111 = load i32, ptr %16, align 4, !tbaa !4
  %112 = sext i32 %111 to i64
  %113 = getelementptr inbounds float, ptr %110, i64 %112
  store float %109, ptr %113, align 4, !tbaa !36
  br label %114

114:                                              ; preds = %71
  br label %115

115:                                              ; preds = %114
  call void @llvm.lifetime.end.p0(i64 4, ptr %18) #10
  call void @llvm.lifetime.end.p0(i64 4, ptr %17) #10
  br label %116

116:                                              ; preds = %115
  %117 = load i32, ptr %16, align 4, !tbaa !4
  %118 = sub nsw i32 %117, 2
  store i32 %118, ptr %16, align 4, !tbaa !4
  br label %47, !llvm.loop !165

119:                                              ; preds = %50
  %120 = load ptr, ptr %5, align 8, !tbaa !17
  %121 = getelementptr inbounds nuw %struct.AVTXContext, ptr %120, i32 0, i32 6
  %122 = getelementptr inbounds [4 x ptr], ptr %121, i64 0, i64 0
  %123 = load ptr, ptr %122, align 8, !tbaa !8
  %124 = load ptr, ptr %5, align 8, !tbaa !17
  %125 = getelementptr inbounds nuw %struct.AVTXContext, ptr %124, i32 0, i32 5
  %126 = load ptr, ptr %125, align 8, !tbaa !68
  %127 = getelementptr inbounds %struct.AVTXContext, ptr %126, i64 0
  %128 = load ptr, ptr %9, align 8, !tbaa !39
  %129 = load ptr, ptr %10, align 8, !tbaa !39
  call void %123(ptr noundef %127, ptr noundef %128, ptr noundef %129, i64 noundef 4)
  call void @llvm.lifetime.start.p0(i64 4, ptr %19) #10
  store i32 0, ptr %19, align 4, !tbaa !4
  br label %130

130:                                              ; preds = %182, %119
  %131 = load i32, ptr %19, align 4, !tbaa !4
  %132 = load i32, ptr %12, align 4, !tbaa !4
  %133 = icmp slt i32 %131, %132
  br i1 %133, label %135, label %134

134:                                              ; preds = %130
  call void @llvm.lifetime.end.p0(i64 4, ptr %19) #10
  br label %185

135:                                              ; preds = %130
  call void @llvm.lifetime.start.p0(i64 4, ptr %20) #10
  %136 = load ptr, ptr %9, align 8, !tbaa !39
  %137 = load i32, ptr %19, align 4, !tbaa !4
  %138 = sext i32 %137 to i64
  %139 = getelementptr inbounds float, ptr %136, i64 %138
  %140 = load float, ptr %139, align 4, !tbaa !36
  store float %140, ptr %20, align 4, !tbaa !36
  call void @llvm.lifetime.start.p0(i64 4, ptr %21) #10
  %141 = load ptr, ptr %9, align 8, !tbaa !39
  %142 = load i32, ptr %11, align 4, !tbaa !4
  %143 = load i32, ptr %19, align 4, !tbaa !4
  %144 = sub nsw i32 %142, %143
  %145 = sub nsw i32 %144, 1
  %146 = sext i32 %145 to i64
  %147 = getelementptr inbounds float, ptr %141, i64 %146
  %148 = load float, ptr %147, align 4, !tbaa !36
  store float %148, ptr %21, align 4, !tbaa !36
  call void @llvm.lifetime.start.p0(i64 4, ptr %22) #10
  %149 = load ptr, ptr %13, align 8, !tbaa !39
  %150 = load i32, ptr %11, align 4, !tbaa !4
  %151 = load i32, ptr %19, align 4, !tbaa !4
  %152 = add nsw i32 %150, %151
  %153 = sext i32 %152 to i64
  %154 = getelementptr inbounds float, ptr %149, i64 %153
  %155 = load float, ptr %154, align 4, !tbaa !36
  store float %155, ptr %22, align 4, !tbaa !36
  %156 = load float, ptr %20, align 4, !tbaa !36
  %157 = load float, ptr %21, align 4, !tbaa !36
  %158 = fadd nsz float %156, %157
  store float %158, ptr %14, align 4, !tbaa !36
  %159 = load float, ptr %20, align 4, !tbaa !36
  %160 = load float, ptr %21, align 4, !tbaa !36
  %161 = fsub nsz float %159, %160
  store float %161, ptr %15, align 4, !tbaa !36
  %162 = load float, ptr %22, align 4, !tbaa !36
  %163 = load float, ptr %15, align 4, !tbaa !36
  %164 = fmul nsz float %163, %162
  store float %164, ptr %15, align 4, !tbaa !36
  %165 = load float, ptr %14, align 4, !tbaa !36
  %166 = load float, ptr %15, align 4, !tbaa !36
  %167 = fadd nsz float %165, %166
  %168 = load ptr, ptr %9, align 8, !tbaa !39
  %169 = load i32, ptr %19, align 4, !tbaa !4
  %170 = sext i32 %169 to i64
  %171 = getelementptr inbounds float, ptr %168, i64 %170
  store float %167, ptr %171, align 4, !tbaa !36
  %172 = load float, ptr %14, align 4, !tbaa !36
  %173 = load float, ptr %15, align 4, !tbaa !36
  %174 = fsub nsz float %172, %173
  %175 = load ptr, ptr %9, align 8, !tbaa !39
  %176 = load i32, ptr %11, align 4, !tbaa !4
  %177 = load i32, ptr %19, align 4, !tbaa !4
  %178 = sub nsw i32 %176, %177
  %179 = sub nsw i32 %178, 1
  %180 = sext i32 %179 to i64
  %181 = getelementptr inbounds float, ptr %175, i64 %180
  store float %174, ptr %181, align 4, !tbaa !36
  call void @llvm.lifetime.end.p0(i64 4, ptr %22) #10
  call void @llvm.lifetime.end.p0(i64 4, ptr %21) #10
  call void @llvm.lifetime.end.p0(i64 4, ptr %20) #10
  br label %182

182:                                              ; preds = %135
  %183 = load i32, ptr %19, align 4, !tbaa !4
  %184 = add nsw i32 %183, 1
  store i32 %184, ptr %19, align 4, !tbaa !4
  br label %130, !llvm.loop !166

185:                                              ; preds = %134
  call void @llvm.lifetime.end.p0(i64 4, ptr %15) #10
  call void @llvm.lifetime.end.p0(i64 4, ptr %14) #10
  call void @llvm.lifetime.end.p0(i64 8, ptr %13) #10
  call void @llvm.lifetime.end.p0(i64 4, ptr %12) #10
  call void @llvm.lifetime.end.p0(i64 4, ptr %11) #10
  call void @llvm.lifetime.end.p0(i64 8, ptr %10) #10
  call void @llvm.lifetime.end.p0(i64 8, ptr %9) #10
  ret void
}