; Function Attrs: nounwind uwtable
define internal void @ff_tx_dctIII_float_c(ptr noundef readonly captures(none) %0, ptr noundef %1, ptr noundef %2, i64 %3) #3 {
  %5 = load i32, ptr %0, align 8, !tbaa !16
  %6 = ashr i32 %5, 1
  %7 = getelementptr inbounds nuw i8, ptr %0, i64 16
  %8 = load ptr, ptr %7, align 8, !tbaa !26
  %9 = sext i32 %5 to i64
  %10 = getelementptr float, ptr %2, i64 %9
  %11 = getelementptr i8, ptr %10, i64 -4
  %12 = load float, ptr %11, align 4, !tbaa !27
  %13 = fmul nsz float %12, 2.000000e+00
  store float %13, ptr %10, align 4, !tbaa !27
  %14 = icmp sgt i32 %5, 3
  br i1 %14, label %.lr.ph, label %._crit_edge

._crit_edge:                                      ; preds = %.lr.ph, %4
  %15 = getelementptr inbounds nuw i8, ptr %0, i64 40
  %16 = load ptr, ptr %15, align 8, !tbaa !4
  %17 = getelementptr inbounds nuw i8, ptr %0, i64 32
  %18 = load ptr, ptr %17, align 8, !tbaa !56
  tail call void %16(ptr noundef %18, ptr noundef %1, ptr noundef nonnull %2, i64 noundef 4) #16
  %19 = icmp sgt i32 %6, 0
  br i1 %19, label %.lr.ph70.preheader, label %._crit_edge71

.lr.ph70.preheader:                               ; preds = %._crit_edge
  %wide.trip.count = zext nneg i32 %6 to i64
  %invariant.gep = getelementptr float, ptr %8, i64 %9
  br label %.lr.ph70

.lr.ph:                                           ; preds = %4, %.lr.ph
  %indvars.iv = phi i64 [ %indvars.iv.next, %.lr.ph ], [ %9, %4 ]
  %indvars.iv.next = add nsw i64 %indvars.iv, -2
  %20 = getelementptr inbounds nuw float, ptr %2, i64 %indvars.iv.next
  %21 = load float, ptr %20, align 4, !tbaa !27
  %22 = getelementptr i8, ptr %20, i64 -4
  %23 = load float, ptr %22, align 4, !tbaa !27
  %24 = getelementptr inbounds nuw i8, ptr %20, i64 4
  %25 = load float, ptr %24, align 4, !tbaa !27
  %26 = fsub nsz float %23, %25
  %27 = sub nsw i64 %9, %indvars.iv.next
  %28 = getelementptr inbounds float, ptr %8, i64 %27
  %29 = load float, ptr %28, align 4, !tbaa !27
  %30 = getelementptr inbounds nuw float, ptr %8, i64 %indvars.iv.next
  %31 = load float, ptr %30, align 4, !tbaa !27
  %32 = fneg nsz float %26
  %33 = fmul nsz float %31, %32
  %34 = tail call nsz float @llvm.fmuladd.f32(float %29, float %21, float %33)
  store float %34, ptr %24, align 4, !tbaa !27
  %35 = load float, ptr %28, align 4, !tbaa !27
  %36 = load float, ptr %30, align 4, !tbaa !27
  %37 = fmul nsz float %21, %36
  %38 = tail call nsz float @llvm.fmuladd.f32(float %35, float %26, float %37)
  store float %38, ptr %20, align 4, !tbaa !27
  %39 = icmp sgt i64 %indvars.iv, 5
  br i1 %39, label %.lr.ph, label %._crit_edge, !llvm.loop !154

._crit_edge71:                                    ; preds = %.lr.ph70, %._crit_edge
  ret void

.lr.ph70:                                         ; preds = %.lr.ph70.preheader, %.lr.ph70
  %indvars.iv73 = phi i64 [ 0, %.lr.ph70.preheader ], [ %indvars.iv.next74, %.lr.ph70 ]
  %40 = getelementptr inbounds nuw float, ptr %1, i64 %indvars.iv73
  %41 = load float, ptr %40, align 4, !tbaa !27
  %42 = trunc i64 %indvars.iv73 to i32
  %43 = xor i32 %42, -1
  %44 = add i32 %5, %43
  %45 = sext i32 %44 to i64
  %46 = getelementptr inbounds float, ptr %1, i64 %45
  %47 = load float, ptr %46, align 4, !tbaa !27
  %gep = getelementptr float, ptr %invariant.gep, i64 %indvars.iv73
  %48 = load float, ptr %gep, align 4, !tbaa !27
  %49 = fadd nsz float %41, %47
  %50 = fsub nsz float %41, %47
  %51 = fmul nsz float %50, %48
  %52 = fadd nsz float %49, %51
  store float %52, ptr %40, align 4, !tbaa !27
  %53 = fsub nsz float %49, %51
  store float %53, ptr %46, align 4, !tbaa !27
  %indvars.iv.next74 = add nuw nsw i64 %indvars.iv73, 1
  %exitcond.not = icmp eq i64 %indvars.iv.next74, %wide.trip.count
  br i1 %exitcond.not, label %._crit_edge71, label %.lr.ph70, !llvm.loop !155
}